target datalayout = "e-m:e-p270:32:32-p271:32:32-p272:64:64-i64:64-i128:128-f80:128-n8:16:32:64-S128"
target triple = "x86_64-pc-linux-gnu"

%struct._zval_struct = type { %union._zend_value, %union.anon, %union.anon.2 }
%union._zend_value = type { i64 }
%union.anon = type { i32 }
%union.anon.2 = type { i32 }
%struct._zend_reference = type { %struct._zend_refcounted_h, %struct._zval_struct, %union.zend_property_info_source_list }
%struct._zend_refcounted_h = type { i32, %union.anon.3 }
%union.anon.3 = type { i32 }
%union.zend_property_info_source_list = type { ptr }
%struct.PHP_MURMUR3A_CTX = type { i32, i32, i32 }

@.str.2 = private unnamed_addr constant [5 x i8] c"seed\00", align 1

; Function Attrs: nounwind uwtable
define void @PHP_MURMUR3AInit(ptr noundef %0, ptr noundef %1) #0 {
  %3 = alloca ptr, align 8
  %4 = alloca ptr, align 8
  %5 = alloca ptr, align 8
  %6 = alloca ptr, align 8
  %7 = alloca i64, align 8
  %8 = alloca ptr, align 8
  %9 = alloca ptr, align 8
  %10 = alloca ptr, align 8
  %11 = alloca ptr, align 8
  store ptr %0, ptr %9, align 8
  store ptr %1, ptr %10, align 8
  %12 = load ptr, ptr %10, align 8
  %13 = icmp ne ptr %12, null
  br i1 %13, label %14, label %56

14:                                               ; preds = %2
  %15 = load ptr, ptr %10, align 8
  store ptr %15, ptr %5, align 8
  store ptr @.str.2, ptr %6, align 8
  store i64 4, ptr %7, align 8
  %16 = load ptr, ptr %5, align 8
  %17 = load ptr, ptr %6, align 8
  %18 = load i64, ptr %7, align 8
  %19 = call ptr @zend_hash_str_find(ptr noundef %16, ptr noundef %17, i64 noundef %18) #4
  store ptr %19, ptr %8, align 8
  %20 = load ptr, ptr %8, align 8
  %21 = icmp ne ptr %20, null
  br i1 %21, label %22, label %34

22:                                               ; preds = %14
  %23 = load ptr, ptr %8, align 8
  store ptr %23, ptr %4, align 8
  %24 = load ptr, ptr %4, align 8
  %25 = getelementptr inbounds %struct._zval_struct, ptr %24, i32 0, i32 1
  %26 = load i8, ptr %25, align 8
  %27 = zext i8 %26 to i32
  %28 = icmp eq i32 %27, 10
  br i1 %28, label %29, label %33

29:                                               ; preds = %22
  %30 = load ptr, ptr %8, align 8
  %31 = load ptr, ptr %30, align 8
  %32 = getelementptr inbounds %struct._zend_reference, ptr %31, i32 0, i32 1
  store ptr %32, ptr %8, align 8
  br label %33

33:                                               ; preds = %29, %22
  br label %34

34:                                               ; preds = %33, %14
  %35 = load ptr, ptr %8, align 8
  store ptr %35, ptr %11, align 8
  %36 = load ptr, ptr %11, align 8
  %37 = icmp ne ptr %36, null
  br i1 %37, label %38, label %52

38:                                               ; preds = %34
  %39 = load ptr, ptr %11, align 8
  store ptr %39, ptr %3, align 8
  %40 = load ptr, ptr %3, align 8
  %41 = getelementptr inbounds %struct._zval_struct, ptr %40, i32 0, i32 1
  %42 = load i8, ptr %41, align 8
  %43 = zext i8 %42 to i32
  %44 = icmp eq i32 4, %43
  br i1 %44, label %45, label %52

45:                                               ; preds = %38
  %46 = load ptr, ptr %11, align 8
  %47 = getelementptr inbounds %struct._zval_struct, ptr %46, i32 0, i32 0
  %48 = load i64, ptr %47, align 8
  %49 = trunc i64 %48 to i32
  %50 = load ptr, ptr %9, align 8
  %51 = getelementptr inbounds %struct.PHP_MURMUR3A_CTX, ptr %50, i32 0, i32 0
  store i32 %49, ptr %51, align 4
  br label %55

52:                                               ; preds = %38, %34
  %53 = load ptr, ptr %9, align 8
  %54 = getelementptr inbounds %struct.PHP_MURMUR3A_CTX, ptr %53, i32 0, i32 0
  store i32 0, ptr %54, align 4
  br label %55

55:                                               ; preds = %52, %45
  br label %59

56:                                               ; preds = %2
  %57 = load ptr, ptr %9, align 8
  %58 = getelementptr inbounds %struct.PHP_MURMUR3A_CTX, ptr %57, i32 0, i32 0
  store i32 0, ptr %58, align 4
  br label %59

59:                                               ; preds = %56, %55
  %60 = load ptr, ptr %9, align 8
  %61 = getelementptr inbounds %struct.PHP_MURMUR3A_CTX, ptr %60, i32 0, i32 1
  store i32 0, ptr %61, align 4
  %62 = load ptr, ptr %9, align 8
  %63 = getelementptr inbounds %struct.PHP_MURMUR3A_CTX, ptr %62, i32 0, i32 2
  store i32 0, ptr %63, align 4
  ret void
}