; Function Attrs: nounwind uwtable
define void @PHP_MURMUR3AInit(ptr nocapture noundef writeonly %0, ptr noundef %1) #0 {
  %.not = icmp eq ptr %1, null
  br i1 %.not, label %18, label %3

3:                                                ; preds = %2
  %4 = tail call ptr @zend_hash_str_find(ptr noundef nonnull %1, ptr noundef nonnull @.str.2, i64 noundef 4) #5
  %.not20 = icmp eq ptr %4, null
  br i1 %.not20, label %18, label %5

5:                                                ; preds = %3
  %6 = getelementptr inbounds i8, ptr %4, i64 8
  %7 = load i8, ptr %6, align 8
  %8 = icmp eq i8 %7, 10
  br i1 %8, label %9, label %12

9:                                                ; preds = %5
  %10 = load ptr, ptr %4, align 8
  %11 = getelementptr inbounds i8, ptr %10, i64 8
  %.phi.trans.insert = getelementptr inbounds i8, ptr %10, i64 16
  %.pre = load i8, ptr %.phi.trans.insert, align 8
  br label %12

12:                                               ; preds = %9, %5
  %13 = phi i8 [ %7, %5 ], [ %.pre, %9 ]
  %.0.ph = phi ptr [ %4, %5 ], [ %11, %9 ]
  %14 = icmp eq i8 %13, 4
  br i1 %14, label %15, label %18

15:                                               ; preds = %12
  %16 = load i64, ptr %.0.ph, align 8
  %17 = trunc i64 %16 to i32
  br label %18

18:                                               ; preds = %2, %12, %3, %15
  %.sink = phi i32 [ %17, %15 ], [ 0, %3 ], [ 0, %12 ], [ 0, %2 ]
  store i32 %.sink, ptr %0, align 4
  %19 = getelementptr inbounds i8, ptr %0, i64 4
  store i32 0, ptr %19, align 4
  %20 = getelementptr inbounds i8, ptr %0, i64 8
  store i32 0, ptr %20, align 4
  ret void
}